; ModuleID = '19/2682.c'
source_filename = "19/2682.c"
target datalayout = "e-m:e-p270:32:32-p271:32:32-p272:64:64-i64:64-f80:128-n8:16:32:64-S128"
target triple = "x86_64-pc-linux-gnu"

%struct.node = type { [110 x i8] }

@all = common dso_local global [110 x %struct.node] zeroinitializer, align 16
@.str = private unnamed_addr constant [4 x i8] c"%s \00", align 1
@.str.1 = private unnamed_addr constant [3 x i8] c"%s\00", align 1

; Function Attrs: noinline nounwind uwtable
define dso_local i32 @main() #0 {
  %1 = alloca i32, align 4
  %2 = alloca [110 x i8], align 16
  %3 = alloca [110 x i8], align 16
  %4 = alloca [110 x i8], align 16
  %5 = alloca [110 x i8], align 16
  %6 = alloca i32, align 4
  %7 = alloca i32, align 4
  %8 = alloca i32, align 4
  store i32 0, i32* %1, align 4
  %9 = getelementptr inbounds [110 x i8], [110 x i8]* %2, i64 0, i64 0
  %10 = call i32 (i8*, ...) bitcast (i32 (...)* @gets to i32 (i8*, ...)*)(i8* %9)
  %11 = getelementptr inbounds [110 x i8], [110 x i8]* %3, i64 0, i64 0
  %12 = call i32 (i8*, ...) bitcast (i32 (...)* @gets to i32 (i8*, ...)*)(i8* %11)
  %13 = getelementptr inbounds [110 x i8], [110 x i8]* %4, i64 0, i64 0
  %14 = call i32 (i8*, ...) bitcast (i32 (...)* @gets to i32 (i8*, ...)*)(i8* %13)
  store i32 0, i32* %8, align 4
  store i32 0, i32* %7, align 4
  store i32 0, i32* %6, align 4
  br label %15

15:                                               ; preds = %59, %0
  %16 = load i32, i32* %6, align 4
  %17 = sext i32 %16 to i64
  %18 = getelementptr inbounds [110 x i8], [110 x i8]* %2, i64 0, i64 %17
  %19 = load i8, i8* %18, align 1
  %20 = sext i8 %19 to i32
  %21 = icmp eq i32 %20, 32
  br i1 %21, label %29, label %22

22:                                               ; preds = %15
  %23 = load i32, i32* %6, align 4
  %24 = sext i32 %23 to i64
  %25 = getelementptr inbounds [110 x i8], [110 x i8]* %2, i64 0, i64 %24
  %26 = load i8, i8* %25, align 1
  %27 = sext i8 %26 to i32
  %28 = icmp eq i32 %27, 0
  br i1 %28, label %29, label %50

29:                                               ; preds = %22, %15
  %30 = load i32, i32* %7, align 4
  %31 = sext i32 %30 to i64
  %32 = getelementptr inbounds [110 x i8], [110 x i8]* %5, i64 0, i64 %31
  store i8 0, i8* %32, align 1
  %33 = load i32, i32* %8, align 4
  %34 = sext i32 %33 to i64
  %35 = getelementptr inbounds [110 x %struct.node], [110 x %struct.node]* @all, i64 0, i64 %34
  %36 = getelementptr inbounds %struct.node, %struct.node* %35, i32 0, i32 0
  %37 = getelementptr inbounds [110 x i8], [110 x i8]* %36, i64 0, i64 0
  %38 = getelementptr inbounds [110 x i8], [110 x i8]* %5, i64 0, i64 0
  %39 = call i8* @strcpy(i8* %37, i8* %38) #4
  store i32 0, i32* %7, align 4
  %40 = load i32, i32* %8, align 4
  %41 = add nsw i32 %40, 1
  store i32 %41, i32* %8, align 4
  %42 = load i32, i32* %6, align 4
  %43 = sext i32 %42 to i64
  %44 = getelementptr inbounds [110 x i8], [110 x i8]* %2, i64 0, i64 %43
  %45 = load i8, i8* %44, align 1
  %46 = sext i8 %45 to i32
  %47 = icmp eq i32 %46, 0
  br i1 %47, label %48, label %49

48:                                               ; preds = %29
  br label %62

49:                                               ; preds = %29
  br label %59

50:                                               ; preds = %22
  %51 = load i32, i32* %6, align 4
  %52 = sext i32 %51 to i64
  %53 = getelementptr inbounds [110 x i8], [110 x i8]* %2, i64 0, i64 %52
  %54 = load i8, i8* %53, align 1
  %55 = load i32, i32* %7, align 4
  %56 = add nsw i32 %55, 1
  store i32 %56, i32* %7, align 4
  %57 = sext i32 %55 to i64
  %58 = getelementptr inbounds [110 x i8], [110 x i8]* %5, i64 0, i64 %57
  store i8 %54, i8* %58, align 1
  br label %59

59:                                               ; preds = %50, %49
  %60 = load i32, i32* %6, align 4
  %61 = add nsw i32 %60, 1
  store i32 %61, i32* %6, align 4
  br label %15

62:                                               ; preds = %48
  store i32 0, i32* %6, align 4
  br label %63

63:                                               ; preds = %85, %62
  %64 = load i32, i32* %6, align 4
  %65 = load i32, i32* %8, align 4
  %66 = icmp slt i32 %64, %65
  br i1 %66, label %67, label %88

67:                                               ; preds = %63
  %68 = load i32, i32* %6, align 4
  %69 = sext i32 %68 to i64
  %70 = getelementptr inbounds [110 x %struct.node], [110 x %struct.node]* @all, i64 0, i64 %69
  %71 = getelementptr inbounds %struct.node, %struct.node* %70, i32 0, i32 0
  %72 = getelementptr inbounds [110 x i8], [110 x i8]* %71, i64 0, i64 0
  %73 = getelementptr inbounds [110 x i8], [110 x i8]* %3, i64 0, i64 0
  %74 = call i32 @strcmp(i8* %72, i8* %73) #5
  %75 = icmp eq i32 %74, 0
  br i1 %75, label %76, label %84

76:                                               ; preds = %67
  %77 = load i32, i32* %6, align 4
  %78 = sext i32 %77 to i64
  %79 = getelementptr inbounds [110 x %struct.node], [110 x %struct.node]* @all, i64 0, i64 %78
  %80 = getelementptr inbounds %struct.node, %struct.node* %79, i32 0, i32 0
  %81 = getelementptr inbounds [110 x i8], [110 x i8]* %80, i64 0, i64 0
  %82 = getelementptr inbounds [110 x i8], [110 x i8]* %4, i64 0, i64 0
  %83 = call i8* @strcpy(i8* %81, i8* %82) #4
  br label %84

84:                                               ; preds = %76, %67
  br label %85

85:                                               ; preds = %84
  %86 = load i32, i32* %6, align 4
  %87 = add nsw i32 %86, 1
  store i32 %87, i32* %6, align 4
  br label %63

88:                                               ; preds = %63
  store i32 0, i32* %6, align 4
  br label %89

89:                                               ; preds = %113, %88
  %90 = load i32, i32* %6, align 4
  %91 = load i32, i32* %8, align 4
  %92 = icmp slt i32 %90, %91
  br i1 %92, label %93, label %116

93:                                               ; preds = %89
  %94 = load i32, i32* %6, align 4
  %95 = load i32, i32* %8, align 4
  %96 = sub nsw i32 %95, 1
  %97 = icmp slt i32 %94, %96
  br i1 %97, label %98, label %105

98:                                               ; preds = %93
  %99 = load i32, i32* %6, align 4
  %100 = sext i32 %99 to i64
  %101 = getelementptr inbounds [110 x %struct.node], [110 x %struct.node]* @all, i64 0, i64 %100
  %102 = getelementptr inbounds %struct.node, %struct.node* %101, i32 0, i32 0
  %103 = getelementptr inbounds [110 x i8], [110 x i8]* %102, i64 0, i64 0
  %104 = call i32 (i8*, ...) @printf(i8* getelementptr inbounds ([4 x i8], [4 x i8]* @.str, i64 0, i64 0), i8* %103)
  br label %112

105:                                              ; preds = %93
  %106 = load i32, i32* %6, align 4
  %107 = sext i32 %106 to i64
  %108 = getelementptr inbounds [110 x %struct.node], [110 x %struct.node]* @all, i64 0, i64 %107
  %109 = getelementptr inbounds %struct.node, %struct.node* %108, i32 0, i32 0
  %110 = getelementptr inbounds [110 x i8], [110 x i8]* %109, i64 0, i64 0
  %111 = call i32 (i8*, ...) @printf(i8* getelementptr inbounds ([3 x i8], [3 x i8]* @.str.1, i64 0, i64 0), i8* %110)
  br label %112

112:                                              ; preds = %105, %98
  br label %113

113:                                              ; preds = %112
  %114 = load i32, i32* %6, align 4
  %115 = add nsw i32 %114, 1
  store i32 %115, i32* %6, align 4
  br label %89

116:                                              ; preds = %89
  ret i32 0
}

declare dso_local i32 @gets(...) #1

; Function Attrs: nounwind
declare dso_local i8* @strcpy(i8*, i8*) #2

; Function Attrs: nounwind readonly
declare dso_local i32 @strcmp(i8*, i8*) #3

declare dso_local i32 @printf(i8*, ...) #1


!llvm.module.flags = !{!0}
!llvm.ident = !{!1}

!0 = !{i32 1, !"wchar_size", i32 4}
!1 = !{!"clang version 10.0.0-4ubuntu1 "}
